; Function Attrs: mustprogress uwtable
define noundef zeroext i1 @_ZNK6casadi6MXNode13sameOpAndDepsEPKS0_x(ptr noundef nonnull align 8 dereferenceable(64) %0, ptr noundef %1, i64 noundef %2) local_unnamed_addr #3 align 2 {
  %4 = load ptr, ptr %0, align 8
  %5 = getelementptr inbounds i8, ptr %4, i64 296
  %6 = load ptr, ptr %5, align 8
  %7 = tail call noundef i64 %6(ptr noundef nonnull align 8 dereferenceable(64) %0)
  %8 = load ptr, ptr %1, align 8
  %9 = getelementptr inbounds i8, ptr %8, i64 296
  %10 = load ptr, ptr %9, align 8
  %11 = tail call noundef i64 %10(ptr noundef nonnull align 8 dereferenceable(64) %1)
  %.not = icmp eq i64 %7, %11
  br i1 %.not, label %12, label %.loopexit

12:                                               ; preds = %3
  %13 = getelementptr inbounds i8, ptr %0, i64 32
  %14 = getelementptr inbounds i8, ptr %0, i64 40
  %15 = load ptr, ptr %14, align 8
  %16 = load ptr, ptr %13, align 8
  %17 = ptrtoint ptr %15 to i64
  %18 = ptrtoint ptr %16 to i64
  %19 = sub i64 %17, %18
  %20 = getelementptr inbounds i8, ptr %1, i64 32
  %21 = getelementptr inbounds i8, ptr %1, i64 40
  %22 = load ptr, ptr %21, align 8
  %23 = load ptr, ptr %20, align 8
  %24 = ptrtoint ptr %22 to i64
  %25 = ptrtoint ptr %23 to i64
  %26 = sub i64 %24, %25
  %.not10 = icmp eq i64 %19, %26
  br i1 %.not10, label %.preheader.split, label %.loopexit

.preheader.split:                                 ; preds = %12
  %27 = icmp sgt i64 %19, 0
  br i1 %27, label %_ZNK6casadi6MXNode3depEx.exit.lr.ph, label %.loopexit

_ZNK6casadi6MXNode3depEx.exit.lr.ph:              ; preds = %.preheader.split
  %28 = add nsw i64 %2, -1
  br label %_ZNK6casadi6MXNode3depEx.exit

_ZNK6casadi6MXNode3depEx.exit:                    ; preds = %_ZNK6casadi6MXNode3depEx.exit.lr.ph, %40
  %29 = phi ptr [ %16, %_ZNK6casadi6MXNode3depEx.exit.lr.ph ], [ %43, %40 ]
  %.018 = phi i64 [ 0, %_ZNK6casadi6MXNode3depEx.exit.lr.ph ], [ %41, %40 ]
  %30 = load ptr, ptr %21, align 8
  %31 = load ptr, ptr %20, align 8
  %32 = ptrtoint ptr %30 to i64
  %33 = ptrtoint ptr %31 to i64
  %34 = sub i64 %32, %33
  %35 = ashr exact i64 %34, 3
  %.not.i.i.i11 = icmp ugt i64 %35, %.018
  br i1 %.not.i.i.i11, label %_ZNK6casadi6MXNode3depEx.exit12, label %36

36:                                               ; preds = %_ZNK6casadi6MXNode3depEx.exit
  tail call void (ptr, ...) @_ZSt24__throw_out_of_range_fmtPKcz(ptr noundef nonnull @.str.93, i64 noundef %.018, i64 noundef %35) #34
  unreachable

_ZNK6casadi6MXNode3depEx.exit12:                  ; preds = %_ZNK6casadi6MXNode3depEx.exit
  %37 = getelementptr inbounds %"class.casadi::MX", ptr %29, i64 %.018
  %38 = getelementptr inbounds %"class.casadi::MX", ptr %31, i64 %.018
  %39 = tail call noundef zeroext i1 @_ZN6casadi2MX8is_equalERKS0_S2_x(ptr noundef nonnull align 8 dereferenceable(8) %37, ptr noundef nonnull align 8 dereferenceable(8) %38, i64 noundef %28)
  br i1 %39, label %40, label %.loopexit

40:                                               ; preds = %_ZNK6casadi6MXNode3depEx.exit12
  %41 = add nuw nsw i64 %.018, 1
  %42 = load ptr, ptr %14, align 8
  %43 = load ptr, ptr %13, align 8
  %44 = ptrtoint ptr %42 to i64
  %45 = ptrtoint ptr %43 to i64
  %46 = sub i64 %44, %45
  %47 = ashr exact i64 %46, 3
  %48 = icmp slt i64 %41, %47
  br i1 %48, label %_ZNK6casadi6MXNode3depEx.exit, label %.loopexit, !llvm.loop !176

.loopexit:                                        ; preds = %_ZNK6casadi6MXNode3depEx.exit12, %40, %.preheader.split, %3, %12
  %.09 = phi i1 [ false, %12 ], [ false, %3 ], [ true, %.preheader.split ], [ %39, %40 ], [ %39, %_ZNK6casadi6MXNode3depEx.exit12 ]
  ret i1 %.09
}